target datalayout = "e-m:e-p270:32:32-p271:32:32-p272:64:64-i64:64-i128:128-f80:128-n8:16:32:64-S128"
target triple = "x86_64-pc-linux-gnu"

%struct.lv_ll_t = type { i32, ptr, ptr }
%struct._lv_ime_pinyin_t = type { %struct._lv_obj_t, ptr, ptr, ptr, %struct.lv_ll_t, ptr, [16 x i8], [8 x i8], i16, i16, i16, i16, i16, i16, [26 x i16], [26 x i16], i32 }
%struct._lv_obj_t = type { ptr, ptr, ptr, ptr, ptr, %struct.lv_area_t, i32, i16, i16 }
%struct.lv_area_t = type { i32, i32, i32, i32 }

@lv_pinyin_cand_str = internal global [6 x [4 x i8]] zeroinitializer, align 16

; Function Attrs: nounwind uwtable
define internal void @pinyin_page_proc(ptr noundef %0, i16 noundef zeroext %1) #0 {
  %3 = alloca ptr, align 8
  %4 = alloca i16, align 2
  %5 = alloca ptr, align 8
  %6 = alloca i16, align 2
  %7 = alloca i16, align 2
  %8 = alloca i32, align 4
  %9 = alloca i8, align 1
  %10 = alloca i16, align 2
  %11 = alloca i8, align 1
  %12 = alloca i8, align 1
  store ptr %0, ptr %3, align 8, !tbaa !8
  store i16 %1, ptr %4, align 2, !tbaa !12
  call void @llvm.lifetime.start.p0(i64 8, ptr %5) #6
  %13 = load ptr, ptr %3, align 8, !tbaa !8
  store ptr %13, ptr %5, align 8, !tbaa !10
  call void @llvm.lifetime.start.p0(i64 2, ptr %6) #6
  %14 = load ptr, ptr %5, align 8, !tbaa !10
  %15 = getelementptr inbounds nuw %struct._lv_ime_pinyin_t, ptr %14, i32 0, i32 12
  %16 = load i16, ptr %15, align 8, !tbaa !29
  %17 = zext i16 %16 to i32
  %18 = sdiv i32 %17, 6
  %19 = trunc i32 %18 to i16
  store i16 %19, ptr %6, align 2, !tbaa !12
  call void @llvm.lifetime.start.p0(i64 2, ptr %7) #6
  %20 = load ptr, ptr %5, align 8, !tbaa !10
  %21 = getelementptr inbounds nuw %struct._lv_ime_pinyin_t, ptr %20, i32 0, i32 12
  %22 = load i16, ptr %21, align 8, !tbaa !29
  %23 = zext i16 %22 to i32
  %24 = srem i32 %23, 6
  %25 = trunc i32 %24 to i16
  store i16 %25, ptr %7, align 2, !tbaa !12
  %26 = load ptr, ptr %5, align 8, !tbaa !10
  %27 = getelementptr inbounds nuw %struct._lv_ime_pinyin_t, ptr %26, i32 0, i32 5
  %28 = load ptr, ptr %27, align 8, !tbaa !52
  %29 = icmp ne ptr %28, null
  br i1 %29, label %31, label %30

30:                                               ; preds = %2
  store i32 1, ptr %8, align 4
  br label %167

31:                                               ; preds = %2
  %32 = load i16, ptr %4, align 2, !tbaa !12
  %33 = zext i16 %32 to i32
  %34 = icmp eq i32 %33, 0
  br i1 %34, label %35, label %46

35:                                               ; preds = %31
  %36 = load ptr, ptr %5, align 8, !tbaa !10
  %37 = getelementptr inbounds nuw %struct._lv_ime_pinyin_t, ptr %36, i32 0, i32 13
  %38 = load i16, ptr %37, align 2, !tbaa !27
  %39 = icmp ne i16 %38, 0
  br i1 %39, label %40, label %45

40:                                               ; preds = %35
  %41 = load ptr, ptr %5, align 8, !tbaa !10
  %42 = getelementptr inbounds nuw %struct._lv_ime_pinyin_t, ptr %41, i32 0, i32 13
  %43 = load i16, ptr %42, align 2, !tbaa !27
  %44 = add i16 %43, -1
  store i16 %44, ptr %42, align 2, !tbaa !27
  br label %45

45:                                               ; preds = %40, %35
  br label %70

46:                                               ; preds = %31
  %47 = load i16, ptr %7, align 2, !tbaa !12
  %48 = zext i16 %47 to i32
  %49 = icmp eq i32 %48, 0
  br i1 %49, label %50, label %55

50:                                               ; preds = %46
  %51 = load i16, ptr %6, align 2, !tbaa !12
  %52 = zext i16 %51 to i32
  %53 = sub nsw i32 %52, 1
  %54 = trunc i32 %53 to i16
  store i16 %54, ptr %6, align 2, !tbaa !12
  br label %55

55:                                               ; preds = %50, %46
  %56 = load ptr, ptr %5, align 8, !tbaa !10
  %57 = getelementptr inbounds nuw %struct._lv_ime_pinyin_t, ptr %56, i32 0, i32 13
  %58 = load i16, ptr %57, align 2, !tbaa !27
  %59 = zext i16 %58 to i32
  %60 = load i16, ptr %6, align 2, !tbaa !12
  %61 = zext i16 %60 to i32
  %62 = icmp slt i32 %59, %61
  br i1 %62, label %63, label %68

63:                                               ; preds = %55
  %64 = load ptr, ptr %5, align 8, !tbaa !10
  %65 = getelementptr inbounds nuw %struct._lv_ime_pinyin_t, ptr %64, i32 0, i32 13
  %66 = load i16, ptr %65, align 2, !tbaa !27
  %67 = add i16 %66, 1
  store i16 %67, ptr %65, align 2, !tbaa !27
  br label %69

68:                                               ; preds = %55
  store i32 1, ptr %8, align 4
  br label %167

69:                                               ; preds = %63
  br label %70

70:                                               ; preds = %69, %45
  call void @llvm.lifetime.start.p0(i64 1, ptr %9) #6
  store i8 0, ptr %9, align 1, !tbaa !16
  br label %71

71:                                               ; preds = %85, %70
  %72 = load i8, ptr %9, align 1, !tbaa !16
  %73 = zext i8 %72 to i32
  %74 = icmp slt i32 %73, 6
  br i1 %74, label %76, label %75

75:                                               ; preds = %71
  store i32 2, ptr %8, align 4
  call void @llvm.lifetime.end.p0(i64 1, ptr %9) #6
  br label %88

76:                                               ; preds = %71
  %77 = load i8, ptr %9, align 1, !tbaa !16
  %78 = zext i8 %77 to i64
  %79 = getelementptr inbounds nuw [6 x [4 x i8]], ptr @lv_pinyin_cand_str, i64 0, i64 %78
  %80 = getelementptr inbounds [4 x i8], ptr %79, i64 0, i64 0
  call void @lv_memset(ptr noundef %80, i8 noundef zeroext 0, i64 noundef 4)
  %81 = load i8, ptr %9, align 1, !tbaa !16
  %82 = zext i8 %81 to i64
  %83 = getelementptr inbounds nuw [6 x [4 x i8]], ptr @lv_pinyin_cand_str, i64 0, i64 %82
  %84 = getelementptr inbounds [4 x i8], ptr %83, i64 0, i64 0
  store i8 32, ptr %84, align 4, !tbaa !16
  br label %85

85:                                               ; preds = %76
  %86 = load i8, ptr %9, align 1, !tbaa !16
  %87 = add i8 %86, 1
  store i8 %87, ptr %9, align 1, !tbaa !16
  br label %71, !llvm.loop !53

88:                                               ; preds = %75
  call void @llvm.lifetime.start.p0(i64 2, ptr %10) #6
  %89 = load ptr, ptr %5, align 8, !tbaa !10
  %90 = getelementptr inbounds nuw %struct._lv_ime_pinyin_t, ptr %89, i32 0, i32 13
  %91 = load i16, ptr %90, align 2, !tbaa !27
  %92 = zext i16 %91 to i32
  %93 = mul nsw i32 %92, 18
  %94 = trunc i32 %93 to i16
  store i16 %94, ptr %10, align 2, !tbaa !12
  call void @llvm.lifetime.start.p0(i64 1, ptr %11) #6
  store i8 0, ptr %11, align 1, !tbaa !16
  br label %95

95:                                               ; preds = %162, %88
  %96 = load i8, ptr %11, align 1, !tbaa !16
  %97 = zext i8 %96 to i32
  %98 = load ptr, ptr %5, align 8, !tbaa !10
  %99 = getelementptr inbounds nuw %struct._lv_ime_pinyin_t, ptr %98, i32 0, i32 12
  %100 = load i16, ptr %99, align 8, !tbaa !29
  %101 = zext i16 %100 to i32
  %102 = icmp slt i32 %97, %101
  br i1 %102, label %103, label %107

103:                                              ; preds = %95
  %104 = load i8, ptr %11, align 1, !tbaa !16
  %105 = zext i8 %104 to i32
  %106 = icmp slt i32 %105, 6
  br label %107

107:                                              ; preds = %103, %95
  %108 = phi i1 [ false, %95 ], [ %106, %103 ]
  br i1 %108, label %110, label %109

109:                                              ; preds = %107
  store i32 5, ptr %8, align 4
  br label %165

110:                                              ; preds = %107
  %111 = load i16, ptr %7, align 2, !tbaa !12
  %112 = zext i16 %111 to i32
  %113 = icmp sgt i32 %112, 0
  br i1 %113, label %114, label %130

114:                                              ; preds = %110
  %115 = load ptr, ptr %5, align 8, !tbaa !10
  %116 = getelementptr inbounds nuw %struct._lv_ime_pinyin_t, ptr %115, i32 0, i32 13
  %117 = load i16, ptr %116, align 2, !tbaa !27
  %118 = zext i16 %117 to i32
  %119 = load i16, ptr %6, align 2, !tbaa !12
  %120 = zext i16 %119 to i32
  %121 = icmp eq i32 %118, %120
  br i1 %121, label %122, label %130

122:                                              ; preds = %114
  %123 = load i8, ptr %11, align 1, !tbaa !16
  %124 = zext i8 %123 to i32
  %125 = load i16, ptr %7, align 2, !tbaa !12
  %126 = zext i16 %125 to i32
  %127 = icmp sge i32 %124, %126
  br i1 %127, label %128, label %129

128:                                              ; preds = %122
  store i32 5, ptr %8, align 4
  br label %165

129:                                              ; preds = %122
  br label %130

130:                                              ; preds = %129, %114, %110
  call void @llvm.lifetime.start.p0(i64 1, ptr %12) #6
  store i8 0, ptr %12, align 1, !tbaa !16
  br label %131

131:                                              ; preds = %158, %130
  %132 = load i8, ptr %12, align 1, !tbaa !16
  %133 = zext i8 %132 to i32
  %134 = icmp slt i32 %133, 3
  br i1 %134, label %136, label %135

135:                                              ; preds = %131
  store i32 8, ptr %8, align 4
  call void @llvm.lifetime.end.p0(i64 1, ptr %12) #6
  br label %161

136:                                              ; preds = %131
  %137 = load ptr, ptr %5, align 8, !tbaa !10
  %138 = getelementptr inbounds nuw %struct._lv_ime_pinyin_t, ptr %137, i32 0, i32 5
  %139 = load ptr, ptr %138, align 8, !tbaa !52
  %140 = load i16, ptr %10, align 2, !tbaa !12
  %141 = zext i16 %140 to i32
  %142 = load i8, ptr %11, align 1, !tbaa !16
  %143 = zext i8 %142 to i32
  %144 = mul nsw i32 %143, 3
  %145 = add nsw i32 %141, %144
  %146 = load i8, ptr %12, align 1, !tbaa !16
  %147 = zext i8 %146 to i32
  %148 = add nsw i32 %145, %147
  %149 = sext i32 %148 to i64
  %150 = getelementptr inbounds i8, ptr %139, i64 %149
  %151 = load i8, ptr %150, align 1, !tbaa !16
  %152 = load i8, ptr %11, align 1, !tbaa !16
  %153 = zext i8 %152 to i64
  %154 = getelementptr inbounds nuw [6 x [4 x i8]], ptr @lv_pinyin_cand_str, i64 0, i64 %153
  %155 = load i8, ptr %12, align 1, !tbaa !16
  %156 = zext i8 %155 to i64
  %157 = getelementptr inbounds nuw [4 x i8], ptr %154, i64 0, i64 %156
  store i8 %151, ptr %157, align 1, !tbaa !16
  br label %158

158:                                              ; preds = %136
  %159 = load i8, ptr %12, align 1, !tbaa !16
  %160 = add i8 %159, 1
  store i8 %160, ptr %12, align 1, !tbaa !16
  br label %131, !llvm.loop !54

161:                                              ; preds = %135
  br label %162

162:                                              ; preds = %161
  %163 = load i8, ptr %11, align 1, !tbaa !16
  %164 = add i8 %163, 1
  store i8 %164, ptr %11, align 1, !tbaa !16
  br label %95, !llvm.loop !55

165:                                              ; preds = %128, %109
  call void @llvm.lifetime.end.p0(i64 1, ptr %11) #6
  br label %166

166:                                              ; preds = %165
  call void @llvm.lifetime.end.p0(i64 2, ptr %10) #6
  store i32 0, ptr %8, align 4
  br label %167

167:                                              ; preds = %166, %68, %30
  call void @llvm.lifetime.end.p0(i64 2, ptr %7) #6
  call void @llvm.lifetime.end.p0(i64 2, ptr %6) #6
  call void @llvm.lifetime.end.p0(i64 8, ptr %5) #6
  %168 = load i32, ptr %8, align 4
  switch i32 %168, label %170 [
    i32 0, label %169
    i32 1, label %169
  ]

169:                                              ; preds = %167, %167
  ret void

170:                                              ; preds = %167
  unreachable
}