; Function Attrs: nounwind uwtable
define internal fastcc void @pinyin_page_proc(ptr noundef captures(none) %0, i16 noundef zeroext range(i16 0, 2) %1) unnamed_addr #0 {
  %3 = getelementptr inbounds nuw i8, ptr %0, i64 152
  %4 = load i16, ptr %3, align 8, !tbaa !24
  %5 = udiv i16 %4, 6
  %6 = urem i16 %4, 6
  %7 = getelementptr inbounds nuw i8, ptr %0, i64 112
  %8 = load ptr, ptr %7, align 8, !tbaa !41
  %.not = icmp eq ptr %8, null
  br i1 %.not, label %.loopexit, label %9

9:                                                ; preds = %2
  %10 = icmp eq i16 %1, 0
  br i1 %10, label %11, label %16

11:                                               ; preds = %9
  %12 = getelementptr inbounds nuw i8, ptr %0, i64 154
  %13 = load i16, ptr %12, align 2, !tbaa !22
  %.not40 = icmp eq i16 %13, 0
  br i1 %.not40, label %24, label %14

14:                                               ; preds = %11
  %15 = add i16 %13, -1
  store i16 %15, ptr %12, align 2, !tbaa !22
  br label %24

16:                                               ; preds = %9
  %17 = icmp eq i16 %6, 0
  %18 = sext i1 %17 to i16
  %spec.select = add nsw i16 %5, %18
  %19 = getelementptr inbounds nuw i8, ptr %0, i64 154
  %20 = load i16, ptr %19, align 2, !tbaa !22
  %21 = icmp ult i16 %20, %spec.select
  br i1 %21, label %22, label %.loopexit

22:                                               ; preds = %16
  %23 = add nuw i16 %20, 1
  store i16 %23, ptr %19, align 2, !tbaa !22
  br label %24

24:                                               ; preds = %11, %14, %22
  %.034 = phi i16 [ %5, %14 ], [ %5, %11 ], [ %spec.select, %22 ]
  br label %45

25:                                               ; preds = %45
  %26 = getelementptr inbounds nuw i8, ptr %0, i64 154
  %27 = load i16, ptr %3, align 8, !tbaa !24
  %.not47 = icmp eq i16 %27, 0
  br i1 %.not47, label %.loopexit, label %.lr.ph

.lr.ph:                                           ; preds = %25
  %28 = load i16, ptr %26, align 2, !tbaa !22
  %29 = mul i16 %28, 18
  %.not41 = icmp eq i16 %6, 0
  %30 = zext i16 %29 to i64
  br i1 %.not41, label %.lr.ph.split.us, label %.lr.ph.split

.lr.ph.split.us:                                  ; preds = %.lr.ph, %32
  %indvars.iv61 = phi i64 [ %indvars.iv.next62, %32 ], [ 0, %.lr.ph ]
  %31 = mul nuw nsw i64 %indvars.iv61, 3
  br label %38

32:                                               ; preds = %38
  %indvars.iv.next62 = add nuw nsw i64 %indvars.iv61, 1
  %33 = load i16, ptr %3, align 8, !tbaa !24
  %34 = trunc nuw nsw i64 %indvars.iv.next62 to i16
  %35 = icmp ugt i16 %33, %34
  %36 = icmp samesign ult i64 %indvars.iv61, 5
  %37 = and i1 %36, %35
  br i1 %37, label %.lr.ph.split.us, label %.loopexit, !llvm.loop !42

38:                                               ; preds = %38, %.lr.ph.split.us
  %indvars.iv57 = phi i64 [ %indvars.iv.next58, %38 ], [ 0, %.lr.ph.split.us ]
  %39 = load ptr, ptr %7, align 8, !tbaa !41
  %40 = getelementptr inbounds nuw i8, ptr %39, i64 %30
  %41 = getelementptr inbounds nuw i8, ptr %40, i64 %31
  %42 = getelementptr inbounds nuw i8, ptr %41, i64 %indvars.iv57
  %43 = load i8, ptr %42, align 1, !tbaa !8
  %44 = getelementptr inbounds nuw [6 x [4 x i8]], ptr @lv_pinyin_cand_str, i64 0, i64 %indvars.iv61, i64 %indvars.iv57
  store i8 %43, ptr %44, align 1, !tbaa !8
  %indvars.iv.next58 = add nuw nsw i64 %indvars.iv57, 1
  %exitcond60.not = icmp eq i64 %indvars.iv.next58, 3
  br i1 %exitcond60.not, label %32, label %38, !llvm.loop !43

45:                                               ; preds = %24, %45
  %indvars.iv = phi i64 [ 0, %24 ], [ %indvars.iv.next, %45 ]
  %46 = getelementptr inbounds nuw [6 x [4 x i8]], ptr @lv_pinyin_cand_str, i64 0, i64 %indvars.iv
  tail call void @lv_memset(ptr noundef nonnull %46, i8 noundef zeroext 0, i64 noundef 4) #6
  store i8 32, ptr %46, align 4, !tbaa !8
  %indvars.iv.next = add nuw nsw i64 %indvars.iv, 1
  %exitcond.not = icmp eq i64 %indvars.iv.next, 6
  br i1 %exitcond.not, label %25, label %45, !llvm.loop !44

.lr.ph.split:                                     ; preds = %.lr.ph, %52
  %indvars.iv54 = phi i64 [ %indvars.iv.next55, %52 ], [ 0, %.lr.ph ]
  %47 = phi i16 [ %54, %52 ], [ 0, %.lr.ph ]
  %48 = load i16, ptr %26, align 2, !tbaa !22
  %49 = icmp ne i16 %48, %.034
  %.not42 = icmp samesign ugt i16 %6, %47
  %or.cond = select i1 %49, i1 true, i1 %.not42
  br i1 %or.cond, label %50, label %.loopexit

50:                                               ; preds = %.lr.ph.split
  %51 = mul nuw nsw i64 %indvars.iv54, 3
  br label %58

52:                                               ; preds = %58
  %indvars.iv.next55 = add nuw nsw i64 %indvars.iv54, 1
  %53 = load i16, ptr %3, align 8, !tbaa !24
  %54 = trunc nuw nsw i64 %indvars.iv.next55 to i16
  %55 = icmp ugt i16 %53, %54
  %56 = icmp samesign ult i64 %indvars.iv54, 5
  %57 = and i1 %56, %55
  br i1 %57, label %.lr.ph.split, label %.loopexit, !llvm.loop !42

58:                                               ; preds = %50, %58
  %indvars.iv50 = phi i64 [ 0, %50 ], [ %indvars.iv.next51, %58 ]
  %59 = load ptr, ptr %7, align 8, !tbaa !41
  %60 = getelementptr inbounds nuw i8, ptr %59, i64 %30
  %61 = getelementptr inbounds nuw i8, ptr %60, i64 %51
  %62 = getelementptr inbounds nuw i8, ptr %61, i64 %indvars.iv50
  %63 = load i8, ptr %62, align 1, !tbaa !8
  %64 = getelementptr inbounds nuw [6 x [4 x i8]], ptr @lv_pinyin_cand_str, i64 0, i64 %indvars.iv54, i64 %indvars.iv50
  store i8 %63, ptr %64, align 1, !tbaa !8
  %indvars.iv.next51 = add nuw nsw i64 %indvars.iv50, 1
  %exitcond53.not = icmp eq i64 %indvars.iv.next51, 3
  br i1 %exitcond53.not, label %52, label %58, !llvm.loop !43

.loopexit:                                        ; preds = %.lr.ph.split, %52, %32, %25, %16, %2
  ret void
}